target datalayout = "e-m:e-p270:32:32-p271:32:32-p272:64:64-i64:64-i128:128-f80:128-n8:16:32:64-S128"
target triple = "x86_64-pc-linux-gnu"

%struct.Vec_Int_t_ = type { i32, i32, ptr }
%struct.Vec_Ptr_t_ = type { i32, i32, ptr }

; Function Attrs: nounwind uwtable
define internal i32 @Vec_IntEntry(ptr noundef %0, i32 noundef %1) #0 {
  %3 = alloca ptr, align 8
  %4 = alloca i32, align 4
  store ptr %0, ptr %3, align 8
  store i32 %1, ptr %4, align 4
  %5 = load ptr, ptr %3, align 8
  %6 = getelementptr inbounds %struct.Vec_Int_t_, ptr %5, i32 0, i32 2
  %7 = load ptr, ptr %6, align 8
  %8 = load i32, ptr %4, align 4
  %9 = sext i32 %8 to i64
  %10 = getelementptr inbounds i32, ptr %7, i64 %9
  %11 = load i32, ptr %10, align 4
  ret i32 %11
}

; Function Attrs: nounwind uwtable
define internal i32 @Vec_IntSize(ptr noundef %0) #0 {
  %2 = alloca ptr, align 8
  store ptr %0, ptr %2, align 8
  %3 = load ptr, ptr %2, align 8
  %4 = getelementptr inbounds %struct.Vec_Int_t_, ptr %3, i32 0, i32 1
  %5 = load i32, ptr %4, align 4
  ret i32 %5
}

; Function Attrs: nounwind uwtable
define internal ptr @Vec_PtrEntry(ptr noundef %0, i32 noundef %1) #0 {
  %3 = alloca ptr, align 8
  %4 = alloca i32, align 4
  store ptr %0, ptr %3, align 8
  store i32 %1, ptr %4, align 4
  %5 = load ptr, ptr %3, align 8
  %6 = getelementptr inbounds %struct.Vec_Ptr_t_, ptr %5, i32 0, i32 2
  %7 = load ptr, ptr %6, align 8
  %8 = load i32, ptr %4, align 4
  %9 = sext i32 %8 to i64
  %10 = getelementptr inbounds ptr, ptr %7, i64 %9
  %11 = load ptr, ptr %10, align 8
  ret ptr %11
}

; Function Attrs: nounwind uwtable
define internal i32 @Vec_PtrSize(ptr noundef %0) #0 {
  %2 = alloca ptr, align 8
  store ptr %0, ptr %2, align 8
  %3 = load ptr, ptr %2, align 8
  %4 = getelementptr inbounds %struct.Vec_Ptr_t_, ptr %3, i32 0, i32 1
  %5 = load i32, ptr %4, align 4
  ret i32 %5
}

; Function Attrs: nounwind uwtable
define i32 @Amap_CreateCheckAllZero(ptr noundef %0) #0 {
  %2 = alloca i32, align 4
  %3 = alloca ptr, align 8
  %4 = alloca ptr, align 8
  %5 = alloca i32, align 4
  store ptr %0, ptr %3, align 8
  %6 = load ptr, ptr %3, align 8
  %7 = call i32 @Vec_PtrSize(ptr noundef %6)
  %8 = sub nsw i32 %7, 1
  store i32 %8, ptr %5, align 4
  br label %9

9:                                                ; preds = %28, %1
  %10 = load i32, ptr %5, align 4
  %11 = icmp sge i32 %10, 0
  br i1 %11, label %12, label %16

12:                                               ; preds = %9
  %13 = load ptr, ptr %3, align 8
  %14 = load i32, ptr %5, align 4
  %15 = call ptr @Vec_PtrEntry(ptr noundef %13, i32 noundef %14)
  store ptr %15, ptr %4, align 8
  br label %16

16:                                               ; preds = %12, %9
  %17 = phi i1 [ false, %9 ], [ true, %12 ]
  br i1 %17, label %18, label %31

18:                                               ; preds = %16
  %19 = load ptr, ptr %4, align 8
  %20 = call i32 @Vec_IntSize(ptr noundef %19)
  %21 = icmp ne i32 %20, 1
  br i1 %21, label %26, label %22

22:                                               ; preds = %18
  %23 = load ptr, ptr %4, align 8
  %24 = call i32 @Vec_IntEntry(ptr noundef %23, i32 noundef 0)
  %25 = icmp ne i32 %24, 0
  br i1 %25, label %26, label %27

26:                                               ; preds = %22, %18
  store i32 0, ptr %2, align 4
  br label %32

27:                                               ; preds = %22
  br label %28

28:                                               ; preds = %27
  %29 = load i32, ptr %5, align 4
  %30 = add nsw i32 %29, -1
  store i32 %30, ptr %5, align 4
  br label %9, !llvm.loop !11

31:                                               ; preds = %16
  store i32 1, ptr %2, align 4
  br label %32

32:                                               ; preds = %31, %26
  %33 = load i32, ptr %2, align 4
  ret i32 %33
}