; Function Attrs: nofree norecurse nosync nounwind memory(read, inaccessiblemem: none) uwtable
define range(i32 0, 2) i32 @Amap_CreateCheckAllZero(ptr noundef readonly captures(none) %0) local_unnamed_addr #2 {
  %2 = getelementptr i8, ptr %0, i64 4
  %.val10 = load i32, ptr %2, align 4
  %3 = getelementptr i8, ptr %0, i64 8
  %4 = zext i32 %.val10 to i64
  br label %5

5:                                                ; preds = %13, %1
  %indvars.iv = phi i64 [ %6, %13 ], [ %4, %1 ]
  %6 = add nsw i64 %indvars.iv, -1
  %7 = trunc nuw i64 %indvars.iv to i32
  %8 = icmp sgt i32 %7, 0
  br i1 %8, label %9, label %.critedge

9:                                                ; preds = %5
  %.val11 = load ptr, ptr %3, align 8
  %10 = getelementptr inbounds nuw ptr, ptr %.val11, i64 %6
  %11 = load ptr, ptr %10, align 8
  %12 = getelementptr i8, ptr %11, i64 4
  %.val = load i32, ptr %12, align 4
  %.not = icmp eq i32 %.val, 1
  br i1 %.not, label %13, label %.critedge

13:                                               ; preds = %9
  %14 = getelementptr i8, ptr %11, i64 8
  %.val9 = load ptr, ptr %14, align 8
  %15 = load i32, ptr %.val9, align 4
  %.not8 = icmp eq i32 %15, 0
  br i1 %.not8, label %5, label %.critedge, !llvm.loop !12

.critedge:                                        ; preds = %5, %9, %13
  %.07 = phi i32 [ 0, %13 ], [ 0, %9 ], [ 1, %5 ]
  ret i32 %.07
}